target datalayout = "e-m:e-p270:32:32-p271:32:32-p272:64:64-i64:64-i128:128-f80:128-n8:16:32:64-S128"
target triple = "x86_64-pc-linux-gnu"

%struct.lzma_filter = type { i64, ptr }
%struct.anon = type { i64, i64, i8, i8, i8 }
%struct.lzma_filter_info_s = type { i64, ptr, ptr }
%struct.lzma_filter_coder = type { i64, ptr, ptr }

; Function Attrs: nounwind uwtable
define dso_local i32 @lzma_validate_chain(ptr noundef %0, ptr noundef %1) #0 {
  %3 = alloca i32, align 4
  %4 = alloca ptr, align 8
  %5 = alloca ptr, align 8
  %6 = alloca i64, align 8
  %7 = alloca i8, align 1
  %8 = alloca i8, align 1
  %9 = alloca i64, align 8
  %10 = alloca i64, align 8
  %11 = alloca i32, align 4
  store ptr %0, ptr %4, align 8, !tbaa !4
  store ptr %1, ptr %5, align 8, !tbaa !24
  %12 = load ptr, ptr %4, align 8, !tbaa !4
  %13 = icmp eq ptr %12, null
  br i1 %13, label %20, label %14

14:                                               ; preds = %2
  %15 = load ptr, ptr %4, align 8, !tbaa !4
  %16 = getelementptr inbounds %struct.lzma_filter, ptr %15, i64 0
  %17 = getelementptr inbounds nuw %struct.lzma_filter, ptr %16, i32 0, i32 0
  %18 = load i64, ptr %17, align 8, !tbaa !10
  %19 = icmp eq i64 %18, -1
  br i1 %19, label %20, label %21

20:                                               ; preds = %14, %2
  store i32 11, ptr %3, align 4
  br label %95

21:                                               ; preds = %14
  call void @llvm.lifetime.start.p0(i64 8, ptr %6) #4
  store i64 0, ptr %6, align 8, !tbaa !8
  call void @llvm.lifetime.start.p0(i64 1, ptr %7) #4
  store i8 1, ptr %7, align 1, !tbaa !26
  call void @llvm.lifetime.start.p0(i64 1, ptr %8) #4
  store i8 0, ptr %8, align 1, !tbaa !26
  call void @llvm.lifetime.start.p0(i64 8, ptr %9) #4
  store i64 0, ptr %9, align 8, !tbaa !8
  br label %22

22:                                               ; preds = %73, %21
  call void @llvm.lifetime.start.p0(i64 8, ptr %10) #4
  store i64 0, ptr %10, align 8, !tbaa !8
  br label %23

23:                                               ; preds = %42, %22
  %24 = load ptr, ptr %4, align 8, !tbaa !4
  %25 = load i64, ptr %9, align 8, !tbaa !8
  %26 = getelementptr inbounds nuw %struct.lzma_filter, ptr %24, i64 %25
  %27 = getelementptr inbounds nuw %struct.lzma_filter, ptr %26, i32 0, i32 0
  %28 = load i64, ptr %27, align 8, !tbaa !10
  %29 = load i64, ptr %10, align 8, !tbaa !8
  %30 = getelementptr inbounds nuw [11 x %struct.anon], ptr @features, i64 0, i64 %29
  %31 = getelementptr inbounds nuw %struct.anon, ptr %30, i32 0, i32 0
  %32 = load i64, ptr %31, align 8, !tbaa !15
  %33 = icmp ne i64 %28, %32
  br i1 %33, label %34, label %45

34:                                               ; preds = %23
  %35 = load i64, ptr %10, align 8, !tbaa !8
  %36 = getelementptr inbounds nuw [11 x %struct.anon], ptr @features, i64 0, i64 %35
  %37 = getelementptr inbounds nuw %struct.anon, ptr %36, i32 0, i32 0
  %38 = load i64, ptr %37, align 8, !tbaa !15
  %39 = icmp eq i64 %38, -1
  br i1 %39, label %40, label %41

40:                                               ; preds = %34
  store i32 8, ptr %3, align 4
  store i32 1, ptr %11, align 4
  br label %70

41:                                               ; preds = %34
  br label %42

42:                                               ; preds = %41
  %43 = load i64, ptr %10, align 8, !tbaa !8
  %44 = add i64 %43, 1
  store i64 %44, ptr %10, align 8, !tbaa !8
  br label %23, !llvm.loop !27

45:                                               ; preds = %23
  %46 = load i8, ptr %7, align 1, !tbaa !26, !range !28, !noundef !29
  %47 = trunc i8 %46 to i1
  br i1 %47, label %49, label %48

48:                                               ; preds = %45
  store i32 8, ptr %3, align 4
  store i32 1, ptr %11, align 4
  br label %70

49:                                               ; preds = %45
  %50 = load i64, ptr %10, align 8, !tbaa !8
  %51 = getelementptr inbounds nuw [11 x %struct.anon], ptr @features, i64 0, i64 %50
  %52 = getelementptr inbounds nuw %struct.anon, ptr %51, i32 0, i32 2
  %53 = load i8, ptr %52, align 8, !tbaa !30, !range !28, !noundef !29
  %54 = trunc i8 %53 to i1
  %55 = zext i1 %54 to i8
  store i8 %55, ptr %7, align 1, !tbaa !26
  %56 = load i64, ptr %10, align 8, !tbaa !8
  %57 = getelementptr inbounds nuw [11 x %struct.anon], ptr @features, i64 0, i64 %56
  %58 = getelementptr inbounds nuw %struct.anon, ptr %57, i32 0, i32 3
  %59 = load i8, ptr %58, align 1, !tbaa !31, !range !28, !noundef !29
  %60 = trunc i8 %59 to i1
  %61 = zext i1 %60 to i8
  store i8 %61, ptr %8, align 1, !tbaa !26
  %62 = load i64, ptr %10, align 8, !tbaa !8
  %63 = getelementptr inbounds nuw [11 x %struct.anon], ptr @features, i64 0, i64 %62
  %64 = getelementptr inbounds nuw %struct.anon, ptr %63, i32 0, i32 4
  %65 = load i8, ptr %64, align 2, !tbaa !32, !range !28, !noundef !29
  %66 = trunc i8 %65 to i1
  %67 = zext i1 %66 to i64
  %68 = load i64, ptr %6, align 8, !tbaa !8
  %69 = add i64 %68, %67
  store i64 %69, ptr %6, align 8, !tbaa !8
  store i32 0, ptr %11, align 4
  br label %70

70:                                               ; preds = %49, %48, %40
  call void @llvm.lifetime.end.p0(i64 8, ptr %10) #4
  %71 = load i32, ptr %11, align 4
  switch i32 %71, label %94 [
    i32 0, label %72
  ]

72:                                               ; preds = %70
  br label %73

73:                                               ; preds = %72
  %74 = load ptr, ptr %4, align 8, !tbaa !4
  %75 = load i64, ptr %9, align 8, !tbaa !8
  %76 = add i64 %75, 1
  store i64 %76, ptr %9, align 8, !tbaa !8
  %77 = getelementptr inbounds nuw %struct.lzma_filter, ptr %74, i64 %76
  %78 = getelementptr inbounds nuw %struct.lzma_filter, ptr %77, i32 0, i32 0
  %79 = load i64, ptr %78, align 8, !tbaa !10
  %80 = icmp ne i64 %79, -1
  br i1 %80, label %22, label %81, !llvm.loop !33

81:                                               ; preds = %73
  %82 = load i64, ptr %9, align 8, !tbaa !8
  %83 = icmp ugt i64 %82, 4
  br i1 %83, label %90, label %84

84:                                               ; preds = %81
  %85 = load i8, ptr %8, align 1, !tbaa !26, !range !28, !noundef !29
  %86 = trunc i8 %85 to i1
  br i1 %86, label %87, label %90

87:                                               ; preds = %84
  %88 = load i64, ptr %6, align 8, !tbaa !8
  %89 = icmp ugt i64 %88, 3
  br i1 %89, label %90, label %91

90:                                               ; preds = %87, %84, %81
  store i32 8, ptr %3, align 4
  store i32 1, ptr %11, align 4
  br label %94

91:                                               ; preds = %87
  %92 = load i64, ptr %9, align 8, !tbaa !8
  %93 = load ptr, ptr %5, align 8, !tbaa !24
  store i64 %92, ptr %93, align 8, !tbaa !8
  store i32 0, ptr %3, align 4
  store i32 1, ptr %11, align 4
  br label %94

94:                                               ; preds = %91, %90, %70
  call void @llvm.lifetime.end.p0(i64 8, ptr %9) #4
  call void @llvm.lifetime.end.p0(i64 1, ptr %8) #4
  call void @llvm.lifetime.end.p0(i64 1, ptr %7) #4
  call void @llvm.lifetime.end.p0(i64 8, ptr %6) #4
  br label %95

95:                                               ; preds = %94, %20
  %96 = load i32, ptr %3, align 4
  ret i32 %96
}

; Function Attrs: nounwind uwtable
define dso_local i32 @lzma_raw_coder_init(ptr noundef %0, ptr noundef %1, ptr noundef %2, ptr noundef %3, i1 noundef zeroext %4) #0 {
  %6 = alloca i32, align 4
  %7 = alloca ptr, align 8
  %8 = alloca ptr, align 8
  %9 = alloca ptr, align 8
  %10 = alloca ptr, align 8
  %11 = alloca i8, align 1
  %12 = alloca i64, align 8
  %13 = alloca i32, align 4
  %14 = alloca i32, align 4
  %15 = alloca [5 x %struct.lzma_filter_info_s], align 16
  %16 = alloca i64, align 8
  %17 = alloca i64, align 8
  %18 = alloca ptr, align 8
  %19 = alloca i64, align 8
  %20 = alloca ptr, align 8
  %21 = alloca i32, align 4
  store ptr %0, ptr %7, align 8, !tbaa !34
  store ptr %1, ptr %8, align 8, !tbaa !4
  store ptr %2, ptr %9, align 8, !tbaa !4
  store ptr %3, ptr %10, align 8, !tbaa !4
  %22 = zext i1 %4 to i8
  store i8 %22, ptr %11, align 1, !tbaa !26
  call void @llvm.lifetime.start.p0(i64 8, ptr %12) #4
  br label %23

23:                                               ; preds = %5
  call void @llvm.lifetime.start.p0(i64 4, ptr %13) #4
  %24 = load ptr, ptr %9, align 8, !tbaa !4
  %25 = call i32 @lzma_validate_chain(ptr noundef %24, ptr noundef %12)
  store i32 %25, ptr %13, align 4, !tbaa !12
  %26 = load i32, ptr %13, align 4, !tbaa !12
  %27 = icmp ne i32 %26, 0
  br i1 %27, label %28, label %30

28:                                               ; preds = %23
  %29 = load i32, ptr %13, align 4, !tbaa !12
  store i32 %29, ptr %6, align 4
  store i32 1, ptr %14, align 4
  br label %31

30:                                               ; preds = %23
  store i32 0, ptr %14, align 4
  br label %31

31:                                               ; preds = %30, %28
  call void @llvm.lifetime.end.p0(i64 4, ptr %13) #4
  %32 = load i32, ptr %14, align 4
  switch i32 %32, label %169 [
    i32 0, label %33
  ]

33:                                               ; preds = %31
  br label %34

34:                                               ; preds = %33
  br label %35

35:                                               ; preds = %34
  call void @llvm.lifetime.start.p0(i64 120, ptr %15) #4
  %36 = load i8, ptr %11, align 1, !tbaa !26, !range !28, !noundef !29
  %37 = trunc i8 %36 to i1
  br i1 %37, label %38, label %96

38:                                               ; preds = %35
  call void @llvm.lifetime.start.p0(i64 8, ptr %16) #4
  store i64 0, ptr %16, align 8, !tbaa !8
  br label %39

39:                                               ; preds = %90, %38
  %40 = load i64, ptr %16, align 8, !tbaa !8
  %41 = load i64, ptr %12, align 8, !tbaa !8
  %42 = icmp ult i64 %40, %41
  br i1 %42, label %44, label %43

43:                                               ; preds = %39
  store i32 4, ptr %14, align 4
  br label %93

44:                                               ; preds = %39
  call void @llvm.lifetime.start.p0(i64 8, ptr %17) #4
  %45 = load i64, ptr %12, align 8, !tbaa !8
  %46 = load i64, ptr %16, align 8, !tbaa !8
  %47 = sub i64 %45, %46
  %48 = sub i64 %47, 1
  store i64 %48, ptr %17, align 8, !tbaa !8
  call void @llvm.lifetime.start.p0(i64 8, ptr %18) #4
  %49 = load ptr, ptr %10, align 8, !tbaa !4
  %50 = load ptr, ptr %9, align 8, !tbaa !4
  %51 = load i64, ptr %16, align 8, !tbaa !8
  %52 = getelementptr inbounds nuw %struct.lzma_filter, ptr %50, i64 %51
  %53 = getelementptr inbounds nuw %struct.lzma_filter, ptr %52, i32 0, i32 0
  %54 = load i64, ptr %53, align 8, !tbaa !10
  %55 = call ptr %49(i64 noundef %54)
  store ptr %55, ptr %18, align 8, !tbaa !4
  %56 = load ptr, ptr %18, align 8, !tbaa !4
  %57 = icmp eq ptr %56, null
  br i1 %57, label %63, label %58

58:                                               ; preds = %44
  %59 = load ptr, ptr %18, align 8, !tbaa !4
  %60 = getelementptr inbounds nuw %struct.lzma_filter_coder, ptr %59, i32 0, i32 1
  %61 = load ptr, ptr %60, align 8, !tbaa !36
  %62 = icmp eq ptr %61, null
  br i1 %62, label %63, label %64

63:                                               ; preds = %58, %44
  store i32 8, ptr %6, align 4
  store i32 1, ptr %14, align 4
  br label %87

64:                                               ; preds = %58
  %65 = load ptr, ptr %9, align 8, !tbaa !4
  %66 = load i64, ptr %16, align 8, !tbaa !8
  %67 = getelementptr inbounds nuw %struct.lzma_filter, ptr %65, i64 %66
  %68 = getelementptr inbounds nuw %struct.lzma_filter, ptr %67, i32 0, i32 0
  %69 = load i64, ptr %68, align 8, !tbaa !10
  %70 = load i64, ptr %17, align 8, !tbaa !8
  %71 = getelementptr inbounds nuw [5 x %struct.lzma_filter_info_s], ptr %15, i64 0, i64 %70
  %72 = getelementptr inbounds nuw %struct.lzma_filter_info_s, ptr %71, i32 0, i32 0
  store i64 %69, ptr %72, align 8, !tbaa !38
  %73 = load ptr, ptr %18, align 8, !tbaa !4
  %74 = getelementptr inbounds nuw %struct.lzma_filter_coder, ptr %73, i32 0, i32 1
  %75 = load ptr, ptr %74, align 8, !tbaa !36
  %76 = load i64, ptr %17, align 8, !tbaa !8
  %77 = getelementptr inbounds nuw [5 x %struct.lzma_filter_info_s], ptr %15, i64 0, i64 %76
  %78 = getelementptr inbounds nuw %struct.lzma_filter_info_s, ptr %77, i32 0, i32 1
  store ptr %75, ptr %78, align 8, !tbaa !40
  %79 = load ptr, ptr %9, align 8, !tbaa !4
  %80 = load i64, ptr %16, align 8, !tbaa !8
  %81 = getelementptr inbounds nuw %struct.lzma_filter, ptr %79, i64 %80
  %82 = getelementptr inbounds nuw %struct.lzma_filter, ptr %81, i32 0, i32 1
  %83 = load ptr, ptr %82, align 8, !tbaa !14
  %84 = load i64, ptr %17, align 8, !tbaa !8
  %85 = getelementptr inbounds nuw [5 x %struct.lzma_filter_info_s], ptr %15, i64 0, i64 %84
  %86 = getelementptr inbounds nuw %struct.lzma_filter_info_s, ptr %85, i32 0, i32 2
  store ptr %83, ptr %86, align 8, !tbaa !41
  store i32 0, ptr %14, align 4
  br label %87

87:                                               ; preds = %64, %63
  call void @llvm.lifetime.end.p0(i64 8, ptr %18) #4
  call void @llvm.lifetime.end.p0(i64 8, ptr %17) #4
  %88 = load i32, ptr %14, align 4
  switch i32 %88, label %93 [
    i32 0, label %89
  ]

89:                                               ; preds = %87
  br label %90

90:                                               ; preds = %89
  %91 = load i64, ptr %16, align 8, !tbaa !8
  %92 = add i64 %91, 1
  store i64 %92, ptr %16, align 8, !tbaa !8
  br label %39, !llvm.loop !42

93:                                               ; preds = %87, %43
  call void @llvm.lifetime.end.p0(i64 8, ptr %16) #4
  %94 = load i32, ptr %14, align 4
  switch i32 %94, label %168 [
    i32 4, label %95
  ]

95:                                               ; preds = %93
  br label %150

96:                                               ; preds = %35
  call void @llvm.lifetime.start.p0(i64 8, ptr %19) #4
  store i64 0, ptr %19, align 8, !tbaa !8
  br label %97

97:                                               ; preds = %144, %96
  %98 = load i64, ptr %19, align 8, !tbaa !8
  %99 = load i64, ptr %12, align 8, !tbaa !8
  %100 = icmp ult i64 %98, %99
  br i1 %100, label %102, label %101

101:                                              ; preds = %97
  store i32 7, ptr %14, align 4
  br label %147

102:                                              ; preds = %97
  call void @llvm.lifetime.start.p0(i64 8, ptr %20) #4
  %103 = load ptr, ptr %10, align 8, !tbaa !4
  %104 = load ptr, ptr %9, align 8, !tbaa !4
  %105 = load i64, ptr %19, align 8, !tbaa !8
  %106 = getelementptr inbounds nuw %struct.lzma_filter, ptr %104, i64 %105
  %107 = getelementptr inbounds nuw %struct.lzma_filter, ptr %106, i32 0, i32 0
  %108 = load i64, ptr %107, align 8, !tbaa !10
  %109 = call ptr %103(i64 noundef %108)
  store ptr %109, ptr %20, align 8, !tbaa !4
  %110 = load ptr, ptr %20, align 8, !tbaa !4
  %111 = icmp eq ptr %110, null
  br i1 %111, label %117, label %112

112:                                              ; preds = %102
  %113 = load ptr, ptr %20, align 8, !tbaa !4
  %114 = getelementptr inbounds nuw %struct.lzma_filter_coder, ptr %113, i32 0, i32 1
  %115 = load ptr, ptr %114, align 8, !tbaa !36
  %116 = icmp eq ptr %115, null
  br i1 %116, label %117, label %118

117:                                              ; preds = %112, %102
  store i32 8, ptr %6, align 4
  store i32 1, ptr %14, align 4
  br label %141

118:                                              ; preds = %112
  %119 = load ptr, ptr %9, align 8, !tbaa !4
  %120 = load i64, ptr %19, align 8, !tbaa !8
  %121 = getelementptr inbounds nuw %struct.lzma_filter, ptr %119, i64 %120
  %122 = getelementptr inbounds nuw %struct.lzma_filter, ptr %121, i32 0, i32 0
  %123 = load i64, ptr %122, align 8, !tbaa !10
  %124 = load i64, ptr %19, align 8, !tbaa !8
  %125 = getelementptr inbounds nuw [5 x %struct.lzma_filter_info_s], ptr %15, i64 0, i64 %124
  %126 = getelementptr inbounds nuw %struct.lzma_filter_info_s, ptr %125, i32 0, i32 0
  store i64 %123, ptr %126, align 8, !tbaa !38
  %127 = load ptr, ptr %20, align 8, !tbaa !4
  %128 = getelementptr inbounds nuw %struct.lzma_filter_coder, ptr %127, i32 0, i32 1
  %129 = load ptr, ptr %128, align 8, !tbaa !36
  %130 = load i64, ptr %19, align 8, !tbaa !8
  %131 = getelementptr inbounds nuw [5 x %struct.lzma_filter_info_s], ptr %15, i64 0, i64 %130
  %132 = getelementptr inbounds nuw %struct.lzma_filter_info_s, ptr %131, i32 0, i32 1
  store ptr %129, ptr %132, align 8, !tbaa !40
  %133 = load ptr, ptr %9, align 8, !tbaa !4
  %134 = load i64, ptr %19, align 8, !tbaa !8
  %135 = getelementptr inbounds nuw %struct.lzma_filter, ptr %133, i64 %134
  %136 = getelementptr inbounds nuw %struct.lzma_filter, ptr %135, i32 0, i32 1
  %137 = load ptr, ptr %136, align 8, !tbaa !14
  %138 = load i64, ptr %19, align 8, !tbaa !8
  %139 = getelementptr inbounds nuw [5 x %struct.lzma_filter_info_s], ptr %15, i64 0, i64 %138
  %140 = getelementptr inbounds nuw %struct.lzma_filter_info_s, ptr %139, i32 0, i32 2
  store ptr %137, ptr %140, align 8, !tbaa !41
  store i32 0, ptr %14, align 4
  br label %141

141:                                              ; preds = %118, %117
  call void @llvm.lifetime.end.p0(i64 8, ptr %20) #4
  %142 = load i32, ptr %14, align 4
  switch i32 %142, label %147 [
    i32 0, label %143
  ]

143:                                              ; preds = %141
  br label %144

144:                                              ; preds = %143
  %145 = load i64, ptr %19, align 8, !tbaa !8
  %146 = add i64 %145, 1
  store i64 %146, ptr %19, align 8, !tbaa !8
  br label %97, !llvm.loop !43

147:                                              ; preds = %141, %101
  call void @llvm.lifetime.end.p0(i64 8, ptr %19) #4
  %148 = load i32, ptr %14, align 4
  switch i32 %148, label %168 [
    i32 7, label %149
  ]

149:                                              ; preds = %147
  br label %150

150:                                              ; preds = %149, %95
  %151 = load i64, ptr %12, align 8, !tbaa !8
  %152 = getelementptr inbounds nuw [5 x %struct.lzma_filter_info_s], ptr %15, i64 0, i64 %151
  %153 = getelementptr inbounds nuw %struct.lzma_filter_info_s, ptr %152, i32 0, i32 0
  store i64 -1, ptr %153, align 8, !tbaa !38
  %154 = load i64, ptr %12, align 8, !tbaa !8
  %155 = getelementptr inbounds nuw [5 x %struct.lzma_filter_info_s], ptr %15, i64 0, i64 %154
  %156 = getelementptr inbounds nuw %struct.lzma_filter_info_s, ptr %155, i32 0, i32 1
  store ptr null, ptr %156, align 8, !tbaa !40
  call void @llvm.lifetime.start.p0(i64 4, ptr %21) #4
  %157 = load ptr, ptr %7, align 8, !tbaa !34
  %158 = load ptr, ptr %8, align 8, !tbaa !4
  %159 = getelementptr inbounds [5 x %struct.lzma_filter_info_s], ptr %15, i64 0, i64 0
  %160 = call i32 @lzma_next_filter_init(ptr noundef %157, ptr noundef %158, ptr noundef %159)
  store i32 %160, ptr %21, align 4, !tbaa !12
  %161 = load i32, ptr %21, align 4, !tbaa !12
  %162 = icmp ne i32 %161, 0
  br i1 %162, label %163, label %166

163:                                              ; preds = %150
  %164 = load ptr, ptr %7, align 8, !tbaa !34
  %165 = load ptr, ptr %8, align 8, !tbaa !4
  call void @lzma_next_end(ptr noundef %164, ptr noundef %165)
  br label %166

166:                                              ; preds = %163, %150
  %167 = load i32, ptr %21, align 4, !tbaa !12
  store i32 %167, ptr %6, align 4
  store i32 1, ptr %14, align 4
  call void @llvm.lifetime.end.p0(i64 4, ptr %21) #4
  br label %168

168:                                              ; preds = %166, %147, %93
  call void @llvm.lifetime.end.p0(i64 120, ptr %15) #4
  br label %169

169:                                              ; preds = %168, %31
  call void @llvm.lifetime.end.p0(i64 8, ptr %12) #4
  %170 = load i32, ptr %6, align 4
  ret i32 %170
}