; Function Attrs: nounwind uwtable
define dso_local i32 @lzma_raw_coder_init(ptr noundef %0, ptr noundef %1, ptr noundef readonly %2, ptr noundef readonly captures(none) %3, i1 noundef zeroext %4) local_unnamed_addr #0 {
  %6 = alloca [5 x %struct.lzma_filter_info_s], align 16
  %7 = icmp eq ptr %2, null
  br i1 %7, label %lzma_validate_chain.exit.thread, label %8

8:                                                ; preds = %5
  %9 = load i64, ptr %2, align 8, !tbaa !4
  %10 = icmp eq i64 %9, -1
  br i1 %10, label %lzma_validate_chain.exit.thread, label %.preheader.i

.preheader.i:                                     ; preds = %8, %17
  %indvars.iv = phi i64 [ %indvars.iv.next, %17 ], [ 1, %8 ]
  %11 = phi i64 [ %26, %17 ], [ %9, %8 ]
  %.026.i = phi i64 [ %23, %17 ], [ 0, %8 ]
  %.024.i = phi i8 [ %19, %17 ], [ 1, %8 ]
  %.022.i = phi i64 [ %24, %17 ], [ 0, %8 ]
  %.not3346.i = icmp eq i64 %11, 4611686018427387905
  br i1 %.not3346.i, label %._crit_edge.i, label %.lr.ph.i

12:                                               ; preds = %.lr.ph.i
  %13 = add nuw nsw i64 %.02147.i, 1
  %14 = getelementptr inbounds nuw [11 x %struct.anon], ptr @features, i64 0, i64 %13
  %15 = load i64, ptr %14, align 8, !tbaa !11
  %.not33.i = icmp eq i64 %11, %15
  br i1 %.not33.i, label %._crit_edge.i, label %.lr.ph.i, !llvm.loop !20

.lr.ph.i:                                         ; preds = %.preheader.i, %12
  %.02147.i = phi i64 [ %13, %12 ], [ 0, %.preheader.i ]
  %exitcond.i = icmp eq i64 %.02147.i, 10
  br i1 %exitcond.i, label %lzma_validate_chain.exit.thread, label %12

._crit_edge.i:                                    ; preds = %12, %.preheader.i
  %.lcssa.i = phi ptr [ @features, %.preheader.i ], [ %14, %12 ]
  %16 = trunc nuw i8 %.024.i to i1
  br i1 %16, label %17, label %lzma_validate_chain.exit.thread

17:                                               ; preds = %._crit_edge.i
  %18 = getelementptr inbounds nuw i8, ptr %.lcssa.i, i64 16
  %19 = load i8, ptr %18, align 8, !tbaa !21, !range !22, !noundef !23
  %20 = getelementptr inbounds nuw i8, ptr %.lcssa.i, i64 18
  %21 = load i8, ptr %20, align 2, !tbaa !24, !range !22, !noundef !23
  %22 = zext nneg i8 %21 to i64
  %23 = add i64 %.026.i, %22
  %24 = add i64 %.022.i, 1
  %25 = getelementptr inbounds nuw %struct.lzma_filter, ptr %2, i64 %24
  %26 = load i64, ptr %25, align 8, !tbaa !4
  %.not34.i = icmp eq i64 %26, -1
  %indvars.iv.next = add i64 %indvars.iv, 1
  br i1 %.not34.i, label %27, label %.preheader.i, !llvm.loop !25

27:                                               ; preds = %17
  %28 = getelementptr inbounds nuw i8, ptr %.lcssa.i, i64 17
  %29 = load i8, ptr %28, align 1, !tbaa !26, !range !22, !noundef !23
  %30 = icmp ult i64 %24, 5
  %31 = trunc nuw i8 %29 to i1
  %32 = icmp ult i64 %23, 4
  %33 = select i1 %30, i1 %31, i1 false
  %or.cond.i = select i1 %33, i1 %32, i1 false
  br i1 %or.cond.i, label %lzma_validate_chain.exit, label %lzma_validate_chain.exit.thread

lzma_validate_chain.exit:                         ; preds = %27
  call void @llvm.lifetime.start.p0(i64 120, ptr nonnull %6) #5
  %.not6089.not = icmp eq i64 %24, 0
  br i1 %4, label %.preheader, label %.preheader78

.preheader78:                                     ; preds = %lzma_validate_chain.exit
  br i1 %.not6089.not, label %.loopexit, label %.lr.ph

.preheader:                                       ; preds = %lzma_validate_chain.exit
  br i1 %.not6089.not, label %.loopexit, label %.lr.ph91

.lr.ph91:                                         ; preds = %.preheader, %43
  %.05690 = phi i64 [ %50, %43 ], [ 0, %.preheader ]
  %34 = sub i64 %.022.i, %.05690
  %35 = getelementptr inbounds nuw %struct.lzma_filter, ptr %2, i64 %.05690
  %36 = load i64, ptr %35, align 8, !tbaa !4
  %37 = tail call ptr %3(i64 noundef %36) #5
  %38 = icmp eq ptr %37, null
  br i1 %38, label %.thread70, label %39

39:                                               ; preds = %.lr.ph91
  %40 = getelementptr inbounds nuw i8, ptr %37, i64 8
  %41 = load ptr, ptr %40, align 8, !tbaa !28
  %42 = icmp eq ptr %41, null
  br i1 %42, label %.thread70, label %43

43:                                               ; preds = %39
  %44 = load i64, ptr %35, align 8, !tbaa !4
  %45 = getelementptr inbounds nuw [5 x %struct.lzma_filter_info_s], ptr %6, i64 0, i64 %34
  store i64 %44, ptr %45, align 8, !tbaa !30
  %46 = getelementptr inbounds nuw i8, ptr %45, i64 8
  store ptr %41, ptr %46, align 8, !tbaa !32
  %47 = getelementptr inbounds nuw i8, ptr %35, i64 8
  %48 = load ptr, ptr %47, align 8, !tbaa !10
  %49 = getelementptr inbounds nuw i8, ptr %45, i64 16
  store ptr %48, ptr %49, align 8, !tbaa !33
  %50 = add nuw i64 %.05690, 1
  %exitcond104.not = icmp eq i64 %50, %indvars.iv
  br i1 %exitcond104.not, label %.loopexit, label %.lr.ph91, !llvm.loop !34

.lr.ph:                                           ; preds = %.preheader78, %59
  %.05588 = phi i64 [ %66, %59 ], [ 0, %.preheader78 ]
  %51 = getelementptr inbounds nuw %struct.lzma_filter, ptr %2, i64 %.05588
  %52 = load i64, ptr %51, align 8, !tbaa !4
  %53 = tail call ptr %3(i64 noundef %52) #5
  %54 = icmp eq ptr %53, null
  br i1 %54, label %.thread70, label %55

55:                                               ; preds = %.lr.ph
  %56 = getelementptr inbounds nuw i8, ptr %53, i64 8
  %57 = load ptr, ptr %56, align 8, !tbaa !28
  %58 = icmp eq ptr %57, null
  br i1 %58, label %.thread70, label %59

59:                                               ; preds = %55
  %60 = load i64, ptr %51, align 8, !tbaa !4
  %61 = getelementptr inbounds nuw [5 x %struct.lzma_filter_info_s], ptr %6, i64 0, i64 %.05588
  store i64 %60, ptr %61, align 8, !tbaa !30
  %62 = getelementptr inbounds nuw i8, ptr %61, i64 8
  store ptr %57, ptr %62, align 8, !tbaa !32
  %63 = getelementptr inbounds nuw i8, ptr %51, i64 8
  %64 = load ptr, ptr %63, align 8, !tbaa !10
  %65 = getelementptr inbounds nuw i8, ptr %61, i64 16
  store ptr %64, ptr %65, align 8, !tbaa !33
  %66 = add nuw i64 %.05588, 1
  %exitcond.not = icmp eq i64 %66, %indvars.iv
  br i1 %exitcond.not, label %.loopexit, label %.lr.ph, !llvm.loop !35

.loopexit:                                        ; preds = %59, %43, %.preheader78, %.preheader
  %67 = getelementptr inbounds nuw [5 x %struct.lzma_filter_info_s], ptr %6, i64 0, i64 %24
  store i64 -1, ptr %67, align 8, !tbaa !30
  %68 = getelementptr inbounds nuw [5 x %struct.lzma_filter_info_s], ptr %6, i64 0, i64 %24, i32 1
  store ptr null, ptr %68, align 8, !tbaa !32
  %69 = call i32 @lzma_next_filter_init(ptr noundef %0, ptr noundef %1, ptr noundef nonnull %6) #5
  %.not61 = icmp eq i32 %69, 0
  br i1 %.not61, label %.thread70, label %70

70:                                               ; preds = %.loopexit
  call void @lzma_next_end(ptr noundef %0, ptr noundef %1) #5
  br label %.thread70

.thread70:                                        ; preds = %55, %.lr.ph, %39, %.lr.ph91, %.loopexit, %70
  %.5 = phi i32 [ %69, %70 ], [ 0, %.loopexit ], [ 8, %.lr.ph91 ], [ 8, %39 ], [ 8, %.lr.ph ], [ 8, %55 ]
  call void @llvm.lifetime.end.p0(i64 120, ptr nonnull %6) #5
  br label %lzma_validate_chain.exit.thread

lzma_validate_chain.exit.thread:                  ; preds = %._crit_edge.i, %.lr.ph.i, %27, %5, %8, %.thread70
  %.1 = phi i32 [ %.5, %.thread70 ], [ 8, %27 ], [ 11, %5 ], [ 11, %8 ], [ 8, %.lr.ph.i ], [ 8, %._crit_edge.i ]
  ret i32 %.1
}